target datalayout = "e-m:e-p270:32:32-p271:32:32-p272:64:64-i64:64-i128:128-f80:128-n8:16:32:64-S128"
target triple = "x86_64-unknown-linux-gnu"

%"struct.node::AssertionInfo" = type { ptr, ptr, ptr }
%"struct.std::atomic.361" = type { %"struct.std::__atomic_base.362" }
%"struct.std::__atomic_base.362" = type { ptr }
%struct.__sigset_t = type { [16 x i64] }
%struct.sigaction = type { %union.anon.363, %struct.__sigset_t, i32, ptr }
%union.anon.363 = type { ptr }

@_ZN4nodeL23previous_sigsegv_actionE = internal global %"struct.std::atomic.361" zeroinitializer, align 8
@_ZZN4node25TrapWebAssemblyOrContinueEiP9siginfo_tPvE4args = internal constant %"struct.node::AssertionInfo" { ptr @.str.28, ptr @.str.29, ptr @.str.30 }, align 8

; Function Attrs: mustprogress nounwind uwtable
define linkonce_odr dso_local noundef i32 @_ZStanSt12memory_orderSt23__memory_order_modifier(i32 noundef %__m, i32 noundef %__mod) #5 comdat {
entry:
  %__m.addr = alloca i32, align 4
  %__mod.addr = alloca i32, align 4
  store i32 %__m, ptr %__m.addr, align 4
  store i32 %__mod, ptr %__mod.addr, align 4
  %0 = load i32, ptr %__m.addr, align 4
  %1 = load i32, ptr %__mod.addr, align 4
  %and = and i32 %0, %1
  ret i32 %and
}

; Function Attrs: mustprogress nounwind uwtable
define linkonce_odr dso_local noundef ptr @_ZNKSt6atomicIPFviP9siginfo_tPvEE4loadESt12memory_order(ptr noundef nonnull align 8 dereferenceable(8) %this, i32 noundef %__m) #5 comdat align 2 {
entry:
  %this.addr.i = alloca ptr, align 8
  %__m.addr.i = alloca i32, align 4
  %__b.i = alloca i32, align 4
  %atomic-temp.i = alloca ptr, align 8
  %this.addr = alloca ptr, align 8
  %__m.addr = alloca i32, align 4
  store ptr %this, ptr %this.addr, align 8
  store i32 %__m, ptr %__m.addr, align 4
  %this1 = load ptr, ptr %this.addr, align 8
  %_M_b = getelementptr inbounds %"struct.std::atomic.361", ptr %this1, i32 0, i32 0
  %0 = load i32, ptr %__m.addr, align 4
  store ptr %_M_b, ptr %this.addr.i, align 8
  store i32 %0, ptr %__m.addr.i, align 4
  %this1.i = load ptr, ptr %this.addr.i, align 8
  %1 = load i32, ptr %__m.addr.i, align 4
  %call.i = call noundef i32 @_ZStanSt12memory_orderSt23__memory_order_modifier(i32 noundef %1, i32 noundef 65535)
  store i32 %call.i, ptr %__b.i, align 4
  %2 = load i32, ptr %__m.addr.i, align 4
  switch i32 %2, label %monotonic.i [
    i32 1, label %acquire.i
    i32 2, label %acquire.i
    i32 5, label %seqcst.i
  ]

monotonic.i:                                      ; preds = %entry
  %3 = load atomic i64, ptr %this1.i monotonic, align 8
  store i64 %3, ptr %atomic-temp.i, align 8
  br label %_ZNKSt13__atomic_baseIPFviP9siginfo_tPvEE4loadESt12memory_order.exit

acquire.i:                                        ; preds = %entry, %entry
  %4 = load atomic i64, ptr %this1.i acquire, align 8
  store i64 %4, ptr %atomic-temp.i, align 8
  br label %_ZNKSt13__atomic_baseIPFviP9siginfo_tPvEE4loadESt12memory_order.exit

seqcst.i:                                         ; preds = %entry
  %5 = load atomic i64, ptr %this1.i seq_cst, align 8
  store i64 %5, ptr %atomic-temp.i, align 8
  br label %_ZNKSt13__atomic_baseIPFviP9siginfo_tPvEE4loadESt12memory_order.exit

_ZNKSt13__atomic_baseIPFviP9siginfo_tPvEE4loadESt12memory_order.exit: ; preds = %seqcst.i, %acquire.i, %monotonic.i
  %6 = load ptr, ptr %atomic-temp.i, align 8
  ret ptr %6
}

; Function Attrs: mustprogress nounwind uwtable
define dso_local void @_ZN4node25TrapWebAssemblyOrContinueEiP9siginfo_tPv(i32 noundef %signo, ptr noundef %info, ptr noundef %ucontext) #5 {
entry:
  %signo.addr = alloca i32, align 4
  %info.addr = alloca ptr, align 8
  %ucontext.addr = alloca ptr, align 8
  %prev = alloca ptr, align 8
  %sa = alloca %struct.sigaction, align 8
  store i32 %signo, ptr %signo.addr, align 4
  store ptr %info, ptr %info.addr, align 8
  store ptr %ucontext, ptr %ucontext.addr, align 8
  %0 = load i32, ptr %signo.addr, align 4
  %1 = load ptr, ptr %info.addr, align 8
  %2 = load ptr, ptr %ucontext.addr, align 8
  %call = call noundef zeroext i1 @_ZN2v829TryHandleWebAssemblyTrapPosixEiP9siginfo_tPv(i32 noundef %0, ptr noundef %1, ptr noundef %2)
  br i1 %call, label %if.end12, label %if.then

if.then:                                          ; preds = %entry
  %call1 = call noundef ptr @_ZNKSt6atomicIPFviP9siginfo_tPvEE4loadESt12memory_order(ptr noundef nonnull align 8 dereferenceable(8) @_ZN4nodeL23previous_sigsegv_actionE, i32 noundef 5) #3
  store ptr %call1, ptr %prev, align 8
  %3 = load ptr, ptr %prev, align 8
  %cmp = icmp ne ptr %3, null
  br i1 %cmp, label %if.then2, label %if.else

if.then2:                                         ; preds = %if.then
  %4 = load ptr, ptr %prev, align 8
  %5 = load i32, ptr %signo.addr, align 4
  %6 = load ptr, ptr %info.addr, align 8
  %7 = load ptr, ptr %ucontext.addr, align 8
  call void %4(i32 noundef %5, ptr noundef %6, ptr noundef %7)
  br label %if.end11

if.else:                                          ; preds = %if.then
  call void @llvm.memset.p0.i64(ptr align 8 %sa, i8 0, i64 152, i1 false)
  %__sigaction_handler = getelementptr inbounds %struct.sigaction, ptr %sa, i32 0, i32 0
  store ptr null, ptr %__sigaction_handler, align 8
  br label %do.body

do.body:                                          ; preds = %if.else
  %8 = load i32, ptr %signo.addr, align 4
  %call3 = call i32 @sigaction(i32 noundef %8, ptr noundef %sa, ptr noundef null) #3
  %cmp4 = icmp eq i32 %call3, 0
  %lnot = xor i1 %cmp4, true
  %lnot5 = xor i1 %lnot, true
  %lnot6 = xor i1 %lnot5, true
  br i1 %lnot6, label %if.then7, label %if.end

if.then7:                                         ; preds = %do.body
  br label %do.body8

do.body8:                                         ; preds = %if.then7
  call void @_ZN4node6AssertERKNS_13AssertionInfoE(ptr noundef nonnull align 8 dereferenceable(24) @_ZZN4node25TrapWebAssemblyOrContinueEiP9siginfo_tPvE4args)
  call void @abort() #18
  unreachable

do.end:                                           ; No predecessors!
  br label %if.end

if.end:                                           ; preds = %do.end, %do.body
  br label %do.end9

do.end9:                                          ; preds = %if.end
  call void @_ZN4node10ResetStdioEv()
  %9 = load i32, ptr %signo.addr, align 4
  %call10 = call i32 @raise(i32 noundef %9) #3
  br label %if.end11

if.end11:                                         ; preds = %do.end9, %if.then2
  br label %if.end12

if.end12:                                         ; preds = %if.end11, %entry
  ret void
}