; Function Attrs: mustprogress nounwind uwtable
define dso_local void @_ZN4node25TrapWebAssemblyOrContinueEiP9siginfo_tPv(i32 noundef %signo, ptr noundef %info, ptr noundef %ucontext) #4 {
entry:
  %sa = alloca %struct.sigaction, align 8
  %call = tail call noundef zeroext i1 @_ZN2v829TryHandleWebAssemblyTrapPosixEiP9siginfo_tPv(i32 noundef %signo, ptr noundef %info, ptr noundef %ucontext) #23
  br i1 %call, label %if.end12, label %if.then

if.then:                                          ; preds = %entry
  %0 = load atomic i64, ptr @_ZN4nodeL23previous_sigsegv_actionE.0 seq_cst, align 8
  %cmp.not = icmp eq i64 %0, 0
  br i1 %cmp.not, label %if.else, label %if.then2

if.then2:                                         ; preds = %if.then
  %atomic-temp.i.0.i = inttoptr i64 %0 to ptr
  tail call void %atomic-temp.i.0.i(i32 noundef %signo, ptr noundef %info, ptr noundef %ucontext) #23
  br label %if.end12

if.else:                                          ; preds = %if.then
  call void @llvm.memset.p0.i64(ptr noundef nonnull align 8 dereferenceable(152) %sa, i8 0, i64 152, i1 false)
  %call3 = call i32 @sigaction(i32 noundef %signo, ptr noundef nonnull %sa, ptr noundef null) #23
  %cmp4.not = icmp eq i32 %call3, 0
  br i1 %cmp4.not, label %do.end9, label %do.body8

do.body8:                                         ; preds = %if.else
  call void @_ZN4node6AssertERKNS_13AssertionInfoE(ptr noundef nonnull align 8 dereferenceable(24) @_ZZN4node25TrapWebAssemblyOrContinueEiP9siginfo_tPvE4args) #23
  call void @abort() #26
  unreachable

do.end9:                                          ; preds = %if.else
  call void @_ZN4node10ResetStdioEv()
  %call10 = call i32 @raise(i32 noundef %signo) #23
  br label %if.end12

if.end12:                                         ; preds = %if.then2, %do.end9, %entry
  ret void
}